; Function Attrs: nounwind uwtable
define void @Gia_Iso2ManCheckIsoClassOne(ptr noundef %0, ptr noundef captures(none) %1, ptr noundef %2, ptr noundef %3, ptr noundef %4, ptr noundef %5, ptr noundef %6, ptr noundef captures(none) initializes((4, 8)) %7) local_unnamed_addr #0 {
  %9 = alloca i32, align 4
  call void @llvm.lifetime.start.p0(i64 4, ptr nonnull %9) #26
  %10 = getelementptr inbounds nuw i8, ptr %7, i64 4
  store i32 0, ptr %10, align 4, !tbaa !28
  %11 = getelementptr i8, ptr %1, i64 4
  %.val30 = load i32, ptr %11, align 4, !tbaa !28
  %12 = icmp slt i32 %.val30, 2
  br i1 %12, label %59, label %13

13:                                               ; preds = %8
  %14 = getelementptr i8, ptr %1, i64 8
  %.val32 = load ptr, ptr %14, align 8, !tbaa !32
  %15 = load i32, ptr %.val32, align 4, !tbaa !34
  store i32 %15, ptr %9, align 4, !tbaa !34
  call void @Gia_Iso2ManCollectOrder(ptr noundef %0, ptr noundef nonnull %9, i32 noundef 1, ptr noundef %2, ptr noundef %3, ptr noundef %5)
  %.val2934 = load i32, ptr %11, align 4, !tbaa !28
  %16 = icmp sgt i32 %.val2934, 1
  br i1 %16, label %.lr.ph, label %.critedge

.lr.ph:                                           ; preds = %13
  %17 = getelementptr i8, ptr %3, i64 4
  %18 = getelementptr i8, ptr %4, i64 4
  %.phi.trans.insert.i = getelementptr inbounds nuw i8, ptr %7, i64 8
  br label %19

19:                                               ; preds = %.lr.ph, %54
  %indvars.iv = phi i64 [ 1, %.lr.ph ], [ %indvars.iv.next, %54 ]
  %.036 = phi i32 [ 1, %.lr.ph ], [ %.1, %54 ]
  %.val31 = load ptr, ptr %14, align 8, !tbaa !32
  %20 = getelementptr inbounds nuw i32, ptr %.val31, i64 %indvars.iv
  %21 = load i32, ptr %20, align 4, !tbaa !34
  store i32 %21, ptr %9, align 4, !tbaa !34
  call void @Gia_Iso2ManCollectOrder(ptr noundef %0, ptr noundef nonnull %9, i32 noundef 1, ptr noundef %2, ptr noundef %4, ptr noundef %6)
  %.val28 = load i32, ptr %17, align 4, !tbaa !28
  %.val = load i32, ptr %18, align 4, !tbaa !28
  %22 = icmp eq i32 %.val28, %.val
  br i1 %22, label %23, label %27

23:                                               ; preds = %19
  %24 = tail call i32 @Gia_Iso2ManCheckIsoPair(ptr noundef %0, ptr noundef nonnull %3, ptr noundef nonnull %4, ptr noundef %5, ptr noundef %6)
  %.not = icmp eq i32 %24, 0
  br i1 %.not, label %27, label %25

25:                                               ; preds = %23
  %26 = add nsw i32 %.036, 1
  %.val33 = load ptr, ptr %14, align 8, !tbaa !32
  br label %54

27:                                               ; preds = %23, %19
  %28 = load i32, ptr %10, align 4, !tbaa !28
  %29 = load i32, ptr %7, align 8, !tbaa !31
  %30 = icmp eq i32 %28, %29
  br i1 %30, label %31, label %.Vec_IntGrow.exit10_crit_edge.i

.Vec_IntGrow.exit10_crit_edge.i:                  ; preds = %27
  %.pre.i = load ptr, ptr %.phi.trans.insert.i, align 8, !tbaa !32
  br label %Vec_IntPush.exit

31:                                               ; preds = %27
  %32 = icmp slt i32 %28, 16
  br i1 %32, label %33, label %40

33:                                               ; preds = %31
  %34 = load ptr, ptr %.phi.trans.insert.i, align 8, !tbaa !32
  %.not9.i.i = icmp eq ptr %34, null
  br i1 %.not9.i.i, label %37, label %35

35:                                               ; preds = %33
  %36 = tail call dereferenceable_or_null(64) ptr @realloc(ptr noundef nonnull %34, i64 noundef 64) #25
  br label %Vec_IntGrow.exit.i

37:                                               ; preds = %33
  %38 = tail call noalias dereferenceable_or_null(64) ptr @malloc(i64 noundef 64) #24
  br label %Vec_IntGrow.exit.i

Vec_IntGrow.exit.i:                               ; preds = %37, %35
  %39 = phi ptr [ %36, %35 ], [ %38, %37 ]
  store ptr %39, ptr %.phi.trans.insert.i, align 8, !tbaa !32
  store i32 16, ptr %7, align 8, !tbaa !31
  br label %Vec_IntPush.exit

40:                                               ; preds = %31
  %41 = shl nuw nsw i32 %28, 1
  %42 = load ptr, ptr %.phi.trans.insert.i, align 8, !tbaa !32
  %.not9.i9.i = icmp eq ptr %42, null
  %43 = zext nneg i32 %41 to i64
  %44 = shl nuw nsw i64 %43, 2
  br i1 %.not9.i9.i, label %47, label %45

45:                                               ; preds = %40
  %46 = tail call ptr @realloc(ptr noundef nonnull %42, i64 noundef %44) #25
  br label %49

47:                                               ; preds = %40
  %48 = tail call noalias ptr @malloc(i64 noundef %44) #24
  br label %49

49:                                               ; preds = %47, %45
  %50 = phi ptr [ %46, %45 ], [ %48, %47 ]
  store ptr %50, ptr %.phi.trans.insert.i, align 8, !tbaa !32
  store i32 %41, ptr %7, align 8, !tbaa !31
  br label %Vec_IntPush.exit

Vec_IntPush.exit:                                 ; preds = %.Vec_IntGrow.exit10_crit_edge.i, %Vec_IntGrow.exit.i, %49
  %51 = phi ptr [ %.pre.i, %.Vec_IntGrow.exit10_crit_edge.i ], [ %50, %49 ], [ %39, %Vec_IntGrow.exit.i ]
  %52 = load i32, ptr %10, align 4, !tbaa !28
  %53 = add nsw i32 %52, 1
  store i32 %53, ptr %10, align 4, !tbaa !28
  br label %54

54:                                               ; preds = %25, %Vec_IntPush.exit
  %.036.sink = phi i32 [ %.036, %25 ], [ %52, %Vec_IntPush.exit ]
  %.val33.sink = phi ptr [ %.val33, %25 ], [ %51, %Vec_IntPush.exit ]
  %.1 = phi i32 [ %26, %25 ], [ %.036, %Vec_IntPush.exit ]
  %55 = sext i32 %.036.sink to i64
  %56 = getelementptr inbounds i32, ptr %.val33.sink, i64 %55
  store i32 %21, ptr %56, align 4, !tbaa !34
  %indvars.iv.next = add nuw nsw i64 %indvars.iv, 1
  %.val29 = load i32, ptr %11, align 4, !tbaa !28
  %57 = sext i32 %.val29 to i64
  %58 = icmp slt i64 %indvars.iv.next, %57
  br i1 %58, label %19, label %.critedge, !llvm.loop !111

.critedge:                                        ; preds = %54, %13
  %.0.lcssa = phi i32 [ 1, %13 ], [ %.1, %54 ]
  store i32 %.0.lcssa, ptr %11, align 4, !tbaa !28
  br label %59

59:                                               ; preds = %8, %.critedge
  call void @llvm.lifetime.end.p0(i64 4, ptr nonnull %9) #26
  ret void
}